; Function Attrs: mustprogress nounwind uwtable
define dso_local noundef i32 @napi_is_array(ptr noundef %env, ptr noundef %value, ptr noundef writeonly %result) local_unnamed_addr #3 {
entry:
  %cmp = icmp eq ptr %env, null
  br i1 %cmp, label %return, label %do.end

do.end:                                           ; preds = %entry
  %module_api_version.i = getelementptr inbounds i8, ptr %env, i64 184
  %0 = load i32, ptr %module_api_version.i, align 8
  %cmp.i = icmp eq i32 %0, 2147483647
  br i1 %cmp.i, label %land.lhs.true.i, label %_ZN10napi_env__13CheckGCAccessEv.exit

land.lhs.true.i:                                  ; preds = %do.end
  %in_gc_finalizer.i = getelementptr inbounds i8, ptr %env, i64 188
  %1 = load i8, ptr %in_gc_finalizer.i, align 4
  %2 = and i8 %1, 1
  %tobool.not.i = icmp eq i8 %2, 0
  br i1 %tobool.not.i, label %_ZN10napi_env__13CheckGCAccessEv.exit, label %if.then.i

if.then.i:                                        ; preds = %land.lhs.true.i
  tail call void @_ZN6v8impl12OnFatalErrorEPKcS1_(ptr noundef null, ptr noundef nonnull @.str.41) #28
  unreachable

_ZN10napi_env__13CheckGCAccessEv.exit:            ; preds = %do.end, %land.lhs.true.i
  %cmp4.not = icmp eq ptr %value, null
  br i1 %cmp4.not, label %if.then5, label %do.body8

if.then5:                                         ; preds = %_ZN10napi_env__13CheckGCAccessEv.exit
  %error_code1.i = getelementptr inbounds i8, ptr %env, i64 156
  store i32 1, ptr %error_code1.i, align 4
  %engine_error_code3.i = getelementptr inbounds i8, ptr %env, i64 152
  store i32 0, ptr %engine_error_code3.i, align 8
  %engine_reserved5.i = getelementptr inbounds i8, ptr %env, i64 144
  store ptr null, ptr %engine_reserved5.i, align 8
  br label %return

do.body8:                                         ; preds = %_ZN10napi_env__13CheckGCAccessEv.exit
  %cmp9.not = icmp eq ptr %result, null
  br i1 %cmp9.not, label %if.then10, label %do.end13

if.then10:                                        ; preds = %do.body8
  %error_code1.i7 = getelementptr inbounds i8, ptr %env, i64 156
  store i32 1, ptr %error_code1.i7, align 4
  %engine_error_code3.i8 = getelementptr inbounds i8, ptr %env, i64 152
  store i32 0, ptr %engine_error_code3.i8, align 8
  %engine_reserved5.i9 = getelementptr inbounds i8, ptr %env, i64 144
  store ptr null, ptr %engine_reserved5.i9, align 8
  br label %return

do.end13:                                         ; preds = %do.body8
  %call18 = tail call noundef zeroext i1 @_ZNK2v85Value7IsArrayEv(ptr noundef nonnull align 1 dereferenceable(1) %value) #24
  %frombool = zext i1 %call18 to i8
  store i8 %frombool, ptr %result, align 1
  %last_error.i = getelementptr inbounds i8, ptr %env, i64 136
  tail call void @llvm.memset.p0.i64(ptr noundef nonnull align 8 dereferenceable(24) %last_error.i, i8 0, i64 24, i1 false)
  br label %return

return:                                           ; preds = %entry, %do.end13, %if.then10, %if.then5
  %retval.0 = phi i32 [ 0, %do.end13 ], [ 1, %if.then10 ], [ 1, %if.then5 ], [ 1, %entry ]
  ret i32 %retval.0
}